; Function Attrs: inlinehint nounwind uwtable
define internal fastcc void @"_ZZN9grpc_core22LegacyClientAuthFilter15MakeCallPromiseENS_8CallArgsESt8functionIFNS_12ArenaPromiseISt10unique_ptrI19grpc_metadata_batchNS_5Arena13PooledDeleterEEEES1_EEEN3$_0D2Ev"(ptr noundef nonnull align 8 captures(none) dereferenceable(64) %0) unnamed_addr #11 align 2 personality ptr @__gxx_personality_v0 {
  %2 = getelementptr inbounds nuw i8, ptr %0, i64 8
  %3 = getelementptr inbounds nuw i8, ptr %0, i64 24
  %4 = load ptr, ptr %3, align 8, !tbaa !59
  %.not.i.i = icmp eq ptr %4, null
  br i1 %.not.i.i, label %_ZN9grpc_core37ClientInitialMetadataOutstandingTokenD2Ev.exit.i, label %5

5:                                                ; preds = %1
  store i8 0, ptr %4, align 2, !tbaa !110
  %6 = getelementptr inbounds nuw i8, ptr %4, i64 1
  store i8 1, ptr %6, align 1, !tbaa !113
  %7 = getelementptr inbounds nuw i8, ptr %4, i64 2
  %8 = load i16, ptr %7, align 2, !tbaa !114
  %9 = icmp eq i16 %8, 0
  br i1 %9, label %_ZN9grpc_core37ClientInitialMetadataOutstandingTokenD2Ev.exit.i, label %10

10:                                               ; preds = %5
  %.not.i.i.i.i.i.i.i.i = icmp eq ptr @_ZTHN9grpc_core8Activity19g_current_activity_E, null
  br i1 %.not.i.i.i.i.i.i.i.i, label %_ZN9grpc_core14promise_detail7ContextINS_8ActivityEvE3getEv.exit.i.i.i.i, label %11

11:                                               ; preds = %10
  invoke void @_ZTHN9grpc_core8Activity19g_current_activity_E()
          to label %.noexc.i.i unwind label %18

.noexc.i.i:                                       ; preds = %11
  %.pre.i.i.i.i = load i16, ptr %7, align 2, !tbaa !25
  br label %_ZN9grpc_core14promise_detail7ContextINS_8ActivityEvE3getEv.exit.i.i.i.i

_ZN9grpc_core14promise_detail7ContextINS_8ActivityEvE3getEv.exit.i.i.i.i: ; preds = %.noexc.i.i, %10
  %12 = phi i16 [ %8, %10 ], [ %.pre.i.i.i.i, %.noexc.i.i ]
  %13 = tail call noundef nonnull align 8 dereferenceable(8) ptr @llvm.threadlocal.address.p0(ptr align 8 @_ZN9grpc_core8Activity19g_current_activity_E)
  %14 = load ptr, ptr %13, align 8, !tbaa !115
  store i16 0, ptr %7, align 2, !tbaa !25
  %15 = load ptr, ptr %14, align 8, !tbaa !18
  %16 = getelementptr inbounds nuw i8, ptr %15, i64 24
  %17 = load ptr, ptr %16, align 8
  invoke void %17(ptr noundef nonnull align 8 dereferenceable(8) %14, i16 noundef zeroext %12)
          to label %_ZN9grpc_core37ClientInitialMetadataOutstandingTokenD2Ev.exit.i unwind label %18

18:                                               ; preds = %_ZN9grpc_core14promise_detail7ContextINS_8ActivityEvE3getEv.exit.i.i.i.i, %11
  %19 = landingpad { ptr, i32 }
          catch ptr null
  %20 = extractvalue { ptr, i32 } %19, 0
  tail call void @__clang_call_terminate(ptr %20) #35
  unreachable

_ZN9grpc_core37ClientInitialMetadataOutstandingTokenD2Ev.exit.i: ; preds = %_ZN9grpc_core14promise_detail7ContextINS_8ActivityEvE3getEv.exit.i.i.i.i, %5, %1
  %21 = getelementptr inbounds nuw i8, ptr %0, i64 16
  %22 = load ptr, ptr %21, align 8, !tbaa !52
  %.not.i1.i = icmp eq ptr %22, null
  br i1 %.not.i1.i, label %_ZN9grpc_core8CallArgsD2Ev.exit, label %23

23:                                               ; preds = %_ZN9grpc_core37ClientInitialMetadataOutstandingTokenD2Ev.exit.i
  %24 = load i8, ptr %2, align 8, !tbaa !104, !range !106, !noundef !35
  %25 = trunc nuw i8 %24 to i1
  br i1 %25, label %26, label %_ZN9grpc_core8CallArgsD2Ev.exit

26:                                               ; preds = %23
  tail call void @_ZN9grpc_core11MetadataMapI19grpc_metadata_batchJNS_16HttpPathMetadataENS_21HttpAuthorityMetadataENS_18HttpMethodMetadataENS_18HttpStatusMetadataENS_18HttpSchemeMetadataENS_19ContentTypeMetadataENS_10TeMetadataENS_20GrpcEncodingMetadataENS_27GrpcInternalEncodingRequestENS_26GrpcAcceptEncodingMetadataENS_18GrpcStatusMetadataENS_19GrpcTimeoutMetadataENS_31GrpcPreviousRpcAttemptsMetadataENS_27GrpcRetryPushbackMsMetadataENS_17UserAgentMetadataENS_19GrpcMessageMetadataENS_12HostMetadataENS_30EndpointLoadMetricsBinMetadataENS_26GrpcServerStatsBinMetadataENS_20GrpcTraceBinMetadataENS_19GrpcTagsBinMetadataENS_25GrpcLbClientStatsMetadataENS_17LbCostBinMetadataENS_15LbTokenMetadataENS_18XEnvoyPeerMetadataENS_22W3CTraceParentMetadataENS_22GrpcStreamNetworkStateENS_10PeerStringENS_17GrpcStatusContextENS_18GrpcStatusFromWireENS_20GrpcCallWasCancelledENS_12WaitForReadyENS_18IsTransparentRetryENS_16GrpcTrailersOnlyENS_10GrpcTarPitENS_20GrpcRegisteredMethodEEED2Ev(ptr noundef nonnull align 8 dereferenceable(600) %22) #33
  tail call void @_ZdlPvm(ptr noundef nonnull %22, i64 noundef 600) #34
  br label %_ZN9grpc_core8CallArgsD2Ev.exit

_ZN9grpc_core8CallArgsD2Ev.exit:                  ; preds = %_ZN9grpc_core37ClientInitialMetadataOutstandingTokenD2Ev.exit.i, %23, %26
  store ptr null, ptr %21, align 8, !tbaa !52
  ret void
}